target datalayout = "e-m:e-p270:32:32-p271:32:32-p272:64:64-i64:64-i128:128-f80:128-n8:16:32:64-S128"
target triple = "x86_64-pc-linux-gnu"

%struct.spring_electrical_control_struct = type { double, double, i32, i32, i32, double, i32, i8, i32, i32, i8, i32, double, double, i32 }

@stderr = external global ptr, align 8
@.str.25 = private unnamed_addr constant [58 x i8] c"integer overflow when trying to allocate %zu * %zu bytes\0A\00", align 1
@.str.26 = private unnamed_addr constant [49 x i8] c"out of memory when trying to allocate %zu bytes\0A\00", align 1

; Function Attrs: inlinehint nounwind uwtable
define internal ptr @gv_calloc(i64 noundef %0, i64 noundef %1) #2 {
  %3 = alloca i64, align 8
  %4 = alloca i64, align 8
  %5 = alloca ptr, align 8
  store i64 %0, ptr %3, align 8, !tbaa !26
  store i64 %1, ptr %4, align 8, !tbaa !26
  %6 = load i64, ptr %3, align 8, !tbaa !26
  %7 = icmp ugt i64 %6, 0
  br i1 %7, label %8, label %18

8:                                                ; preds = %2
  %9 = load i64, ptr %3, align 8, !tbaa !26
  %10 = udiv i64 -1, %9
  %11 = load i64, ptr %4, align 8, !tbaa !26
  %12 = icmp ult i64 %10, %11
  br i1 %12, label %13, label %18

13:                                               ; preds = %8
  %14 = load ptr, ptr @stderr, align 8, !tbaa !28
  %15 = load i64, ptr %3, align 8, !tbaa !26
  %16 = load i64, ptr %4, align 8, !tbaa !26
  %17 = call i32 (ptr, ptr, ...) @fprintf(ptr noundef %14, ptr noundef @.str.25, i64 noundef %15, i64 noundef %16) #12
  call void @graphviz_exit(i32 noundef 1) #13
  unreachable

18:                                               ; preds = %8, %2
  call void @llvm.lifetime.start.p0(i64 8, ptr %5) #12
  %19 = load i64, ptr %3, align 8, !tbaa !26
  %20 = load i64, ptr %4, align 8, !tbaa !26
  %21 = call noalias ptr @calloc(i64 noundef %19, i64 noundef %20) #14
  store ptr %21, ptr %5, align 8, !tbaa !68
  %22 = load i64, ptr %3, align 8, !tbaa !26
  %23 = icmp ugt i64 %22, 0
  br i1 %23, label %24, label %36

24:                                               ; preds = %18
  %25 = load i64, ptr %4, align 8, !tbaa !26
  %26 = icmp ugt i64 %25, 0
  br i1 %26, label %27, label %36

27:                                               ; preds = %24
  %28 = load ptr, ptr %5, align 8, !tbaa !68
  %29 = icmp eq ptr %28, null
  br i1 %29, label %30, label %36

30:                                               ; preds = %27
  %31 = load ptr, ptr @stderr, align 8, !tbaa !28
  %32 = load i64, ptr %3, align 8, !tbaa !26
  %33 = load i64, ptr %4, align 8, !tbaa !26
  %34 = mul i64 %32, %33
  %35 = call i32 (ptr, ptr, ...) @fprintf(ptr noundef %31, ptr noundef @.str.26, i64 noundef %34) #12
  call void @graphviz_exit(i32 noundef 1) #13
  unreachable

36:                                               ; preds = %27, %24, %18
  %37 = load ptr, ptr %5, align 8, !tbaa !68
  call void @llvm.lifetime.end.p0(i64 8, ptr %5) #12
  ret ptr %37
}

; Function Attrs: inlinehint nounwind uwtable
define internal ptr @gv_alloc(i64 noundef %0) #2 {
  %2 = alloca i64, align 8
  store i64 %0, ptr %2, align 8, !tbaa !26
  %3 = load i64, ptr %2, align 8, !tbaa !26
  %4 = call ptr @gv_calloc(i64 noundef 1, i64 noundef %3)
  ret ptr %4
}

; Function Attrs: nounwind uwtable
define ptr @spring_electrical_control_new() #0 {
  %1 = alloca ptr, align 8
  call void @llvm.lifetime.start.p0(i64 8, ptr %1) #12
  %2 = call ptr @gv_alloc(i64 noundef 88)
  store ptr %2, ptr %1, align 8, !tbaa !3
  %3 = load ptr, ptr %1, align 8, !tbaa !3
  %4 = getelementptr inbounds nuw %struct.spring_electrical_control_struct, ptr %3, i32 0, i32 0
  store double 0xBFF0008164EF6DE2, ptr %4, align 8, !tbaa !8
  %5 = load ptr, ptr %1, align 8, !tbaa !3
  %6 = getelementptr inbounds nuw %struct.spring_electrical_control_struct, ptr %5, i32 0, i32 7
  %7 = load i8, ptr %6, align 4
  %8 = and i8 %7, -2
  %9 = or i8 %8, 1
  store i8 %9, ptr %6, align 4
  %10 = load ptr, ptr %1, align 8, !tbaa !3
  %11 = getelementptr inbounds nuw %struct.spring_electrical_control_struct, ptr %10, i32 0, i32 1
  store double -1.000000e+00, ptr %11, align 8, !tbaa !13
  %12 = load ptr, ptr %1, align 8, !tbaa !3
  %13 = getelementptr inbounds nuw %struct.spring_electrical_control_struct, ptr %12, i32 0, i32 2
  store i32 0, ptr %13, align 8, !tbaa !14
  %14 = load ptr, ptr %1, align 8, !tbaa !3
  %15 = getelementptr inbounds nuw %struct.spring_electrical_control_struct, ptr %14, i32 0, i32 3
  store i32 10, ptr %15, align 4, !tbaa !15
  %16 = load ptr, ptr %1, align 8, !tbaa !3
  %17 = getelementptr inbounds nuw %struct.spring_electrical_control_struct, ptr %16, i32 0, i32 4
  store i32 500, ptr %17, align 8, !tbaa !16
  %18 = load ptr, ptr %1, align 8, !tbaa !3
  %19 = getelementptr inbounds nuw %struct.spring_electrical_control_struct, ptr %18, i32 0, i32 5
  store double 1.000000e-01, ptr %19, align 8, !tbaa !17
  %20 = load ptr, ptr %1, align 8, !tbaa !3
  %21 = getelementptr inbounds nuw %struct.spring_electrical_control_struct, ptr %20, i32 0, i32 7
  %22 = load i8, ptr %21, align 4
  %23 = and i8 %22, -3
  %24 = or i8 %23, 2
  store i8 %24, ptr %21, align 4
  %25 = load ptr, ptr %1, align 8, !tbaa !3
  %26 = getelementptr inbounds nuw %struct.spring_electrical_control_struct, ptr %25, i32 0, i32 6
  store i32 123, ptr %26, align 8, !tbaa !18
  %27 = load ptr, ptr %1, align 8, !tbaa !3
  %28 = getelementptr inbounds nuw %struct.spring_electrical_control_struct, ptr %27, i32 0, i32 7
  %29 = load i8, ptr %28, align 4
  %30 = and i8 %29, -5
  %31 = or i8 %30, 0
  store i8 %31, ptr %28, align 4
  %32 = load ptr, ptr %1, align 8, !tbaa !3
  %33 = getelementptr inbounds nuw %struct.spring_electrical_control_struct, ptr %32, i32 0, i32 8
  store i32 0, ptr %33, align 8, !tbaa !19
  %34 = load ptr, ptr %1, align 8, !tbaa !3
  %35 = getelementptr inbounds nuw %struct.spring_electrical_control_struct, ptr %34, i32 0, i32 9
  store i32 0, ptr %35, align 4, !tbaa !20
  %36 = load ptr, ptr %1, align 8, !tbaa !3
  %37 = getelementptr inbounds nuw %struct.spring_electrical_control_struct, ptr %36, i32 0, i32 10
  store i8 1, ptr %37, align 8, !tbaa !21
  %38 = load ptr, ptr %1, align 8, !tbaa !3
  %39 = getelementptr inbounds nuw %struct.spring_electrical_control_struct, ptr %38, i32 0, i32 11
  store i32 3, ptr %39, align 4, !tbaa !22
  %40 = load ptr, ptr %1, align 8, !tbaa !3
  %41 = getelementptr inbounds nuw %struct.spring_electrical_control_struct, ptr %40, i32 0, i32 12
  store double -4.000000e+00, ptr %41, align 8, !tbaa !23
  %42 = load ptr, ptr %1, align 8, !tbaa !3
  %43 = getelementptr inbounds nuw %struct.spring_electrical_control_struct, ptr %42, i32 0, i32 13
  store double 0.000000e+00, ptr %43, align 8, !tbaa !24
  %44 = load ptr, ptr %1, align 8, !tbaa !3
  %45 = getelementptr inbounds nuw %struct.spring_electrical_control_struct, ptr %44, i32 0, i32 14
  store i32 0, ptr %45, align 8, !tbaa !25
  %46 = load ptr, ptr %1, align 8, !tbaa !3
  call void @llvm.lifetime.end.p0(i64 8, ptr %1) #12
  ret ptr %46
}