; Function Attrs: nofree nounwind uwtable
define noalias noundef ptr @spring_electrical_control_new() local_unnamed_addr #0 {
  %1 = tail call noalias dereferenceable_or_null(88) ptr @calloc(i64 noundef 1, i64 noundef 88) #22
  %2 = icmp eq ptr %1, null
  br i1 %2, label %3, label %gv_alloc.exit

3:                                                ; preds = %0
  %4 = load ptr, ptr @stderr, align 8, !tbaa !3
  %5 = tail call i32 (ptr, ptr, ...) @fprintf(ptr noundef %4, ptr noundef nonnull @.str.26, i64 noundef 88) #23
  tail call fastcc void @graphviz_exit() #24
  unreachable

gv_alloc.exit:                                    ; preds = %0
  store double 0xBFF0008164EF6DE2, ptr %1, align 8, !tbaa !8
  %6 = getelementptr inbounds nuw i8, ptr %1, i64 44
  %7 = getelementptr inbounds nuw i8, ptr %1, i64 8
  store double -1.000000e+00, ptr %7, align 8, !tbaa !13
  %8 = getelementptr inbounds nuw i8, ptr %1, i64 20
  store i32 10, ptr %8, align 4, !tbaa !14
  %9 = getelementptr inbounds nuw i8, ptr %1, i64 24
  store i32 500, ptr %9, align 8, !tbaa !15
  %10 = getelementptr inbounds nuw i8, ptr %1, i64 32
  store double 1.000000e-01, ptr %10, align 8, !tbaa !16
  %11 = getelementptr inbounds nuw i8, ptr %1, i64 40
  store i32 123, ptr %11, align 8, !tbaa !17
  store i8 3, ptr %6, align 4
  %12 = getelementptr inbounds nuw i8, ptr %1, i64 56
  store i8 1, ptr %12, align 8, !tbaa !18
  %13 = getelementptr inbounds nuw i8, ptr %1, i64 60
  store i32 3, ptr %13, align 4, !tbaa !19
  %14 = getelementptr inbounds nuw i8, ptr %1, i64 64
  store double -4.000000e+00, ptr %14, align 8, !tbaa !20
  ret ptr %1
}